(((lp0
(lp1
I17
aa(lp2
I17
aa(lp3
I11
aI20
aa(lp4
I23
aI6
aa(lp5
I23
aI6
aa(lp6
I23
aI6
aa(lp7
I23
aI24
aI6
aI13
aa(lp8
I4
aI5
aa(lp9
I12
aI8
aa(lp10
I12
aI21
aa(lp11
I15
aI18
aI14
aa(lp12
I7
aI10
aa(lp13
I22
aI10
aa(lp14
I9
aa(lp15
I7
aI19
aa(lp16
I16
aa(lp17
a(lp18
(lp19
I24
aI1
aa(lp20
I35
aI1
aa(lp21
I10
aI25
aI15
aI1
aa(lp22
I29
aI4
aI22
aI1
aa(lp23
I28
aI4
aI22
aI1
aa(lp24
I19
aI4
aI22
aI1
aa(lp25
I18
aI4
aI22
aI1
aa(lp26
I27
aI17
aI1
aa(lp27
I7
aI34
aI1
aa(lp28
I26
aI16
aI21
aI33
aI22
aI1
aa(lp29
I32
aI6
aI31
aI13
aI30
aI23
aI1
aa(lp30
I9
aI1
aa(lp31
I32
aI5
aI11
aI1
aa(lp32
I12
aI1
aa(lp33
I20
aI8
aI1
aa(lp34
I14
aI32
aI6
aI31
aI1
aa(lp35
I1
aatp36
((dp37
Vkhane
p38
I4
sVbje
p39
I6
sVare
p40
I18
sVyour
p41
I7
sS'<UNK>'
p42
I2
sS'<EOS>'
p43
I1
sVgood?
p44
I9
sVhow
p45
I15
sS'<PAD>'
p46
I0
sS'<GO>'
p47
I3
sVage?
p48
I10
sVclass
p49
I23
sVghumne
p50
I12
sVyou?
p51
I14
sVhi
p52
I17
sVname?
p53
I19
sVhai?
p54
I13
sVkya?
p55
I5
sVchalen?
p56
I8
sVkaam
p57
I11
sVfine?
p58
I16
sVho?
p59
I20
sVchlen?
p60
I21
sVmy
p61
I22
sVkitne
p62
I24
s(dp63
Vbje
p64
I4
sVdon't
p65
I5
sVam
p66
I6
sVchal
p67
I7
sVhonge.
p68
I17
sVrobot.
p69
I8
sV19.
p70
I9
sVhaan
p71
I10
sVknow.
p72
I11
sg42
I2
sVyes.
p73
I12
sVwhat
p74
I13
sVyes,
p75
I14
sVgya.
p76
I15
sVabhi
p77
I16
sVmr.
p78
I20
sg43
I1
sV3
p79
I18
sV4
p80
I19
sg47
I3
sV10
p81
I29
sVhai.
p82
I22
sVyou?
p83
I23
sVhi
p84
I24
sVho
p85
I25
sVnahi
p86
I26
sVraajmah
p87
I27
sV11
p88
I28
sVjaruri
p89
I21
sVabout
p90
I30
sVfine.
p91
I31
sVi
p92
I32
sVkaam
p93
I33
sg46
I0
sVchalte.
p94
I34
sVhello
p95
I35
stp96
((dp97
I0
g46
sI1
g43
sI2
g42
sI3
g47
sI4
g38
sI5
g55
sI6
g39
sI7
g41
sI8
g56
sI9
g44
sI10
g48
sI11
g57
sI12
g50
sI13
g54
sI14
g51
sI15
g45
sI16
g58
sI17
g52
sI18
g40
sI19
g53
sI20
g59
sI21
g60
sI22
g61
sI23
g49
sI24
g62
s(dp98
I0
g46
sI1
g43
sI2
g42
sI3
g47
sI4
g64
sI5
g65
sI6
g66
sI7
g67
sI8
g69
sI9
g70
sI10
g71
sI11
g72
sI12
g73
sI13
g74
sI14
g75
sI15
g76
sI16
g77
sI17
g68
sI18
g79
sI19
g80
sI20
g78
sI21
g89
sI22
g82
sI23
g83
sI24
g84
sI25
g85
sI26
g86
sI27
g87
sI28
g88
sI29
g81
sI30
g90
sI31
g91
sI32
g92
sI33
g93
sI34
g94
sI35
g95
stp99
tp100
.